target datalayout = "e-m:e-p270:32:32-p271:32:32-p272:64:64-i64:64-i128:128-f80:128-n8:16:32:64-S128"
target triple = "x86_64-pc-linux-gnu"

%struct.FrameRectangle = type { i32, i32, i32, i32 }
%struct.WebPAnimEncoderOptions = type { %struct.WebPMuxAnimParams, i32, i32, i32, i32, i32, [4 x i32] }
%struct.WebPMuxAnimParams = type { i32, i32 }
%struct.WebPAnimEncoder = type { i32, i32, %struct.WebPAnimEncoderOptions, %struct.FrameRectangle, %struct.WebPConfig, %struct.WebPConfig, ptr, %struct.WebPPicture, i32, %struct.WebPPicture, %struct.WebPPicture, ptr, i64, i64, i64, i64, i64, i32, i32, i32, i32, i32, i32, i32, i64, i64, ptr, [100 x i8] }
%struct.WebPConfig = type { i32, float, i32, i32, i32, float, i32, i32, i32, i32, i32, i32, i32, i32, i32, i32, i32, i32, i32, i32, i32, i32, i32, i32, i32, i32, i32, i32, i32 }
%struct.WebPPicture = type { i32, i32, i32, i32, ptr, ptr, ptr, i32, i32, ptr, i32, [2 x i32], ptr, i32, [3 x i32], ptr, ptr, i32, ptr, ptr, i32, ptr, ptr, [3 x i32], ptr, ptr, [8 x i32], ptr, ptr, [2 x ptr] }

; Function Attrs: nounwind uwtable
define i32 @WebPAnimEncoderGetChunk(ptr noundef %0, ptr noundef %1, ptr noundef %2) #0 {
  %4 = alloca i32, align 4
  %5 = alloca ptr, align 8
  %6 = alloca ptr, align 8
  %7 = alloca ptr, align 8
  store ptr %0, ptr %5, align 8, !tbaa !17
  store ptr %1, ptr %6, align 8, !tbaa !85
  store ptr %2, ptr %7, align 8, !tbaa !116
  %8 = load ptr, ptr %5, align 8, !tbaa !17
  %9 = icmp eq ptr %8, null
  br i1 %9, label %10, label %11

10:                                               ; preds = %3
  store i32 -1, ptr %4, align 4
  br label %18

11:                                               ; preds = %3
  %12 = load ptr, ptr %5, align 8, !tbaa !17
  %13 = getelementptr inbounds nuw %struct.WebPAnimEncoder, ptr %12, i32 0, i32 26
  %14 = load ptr, ptr %13, align 8, !tbaa !40
  %15 = load ptr, ptr %6, align 8, !tbaa !85
  %16 = load ptr, ptr %7, align 8, !tbaa !116
  %17 = call i32 @WebPMuxGetChunk(ptr noundef %14, ptr noundef %15, ptr noundef %16)
  store i32 %17, ptr %4, align 4
  br label %18

18:                                               ; preds = %11, %10
  %19 = load i32, ptr %4, align 4
  ret i32 %19
}