; Function Attrs: nounwind uwtable
define i32 @WebPAnimEncoderGetChunk(ptr noundef readonly captures(address_is_null) %0, ptr noundef %1, ptr noundef %2) local_unnamed_addr #1 {
  %4 = icmp eq ptr %0, null
  br i1 %4, label %9, label %5

5:                                                ; preds = %3
  %6 = getelementptr inbounds nuw i8, ptr %0, i64 1184
  %7 = load ptr, ptr %6, align 8, !tbaa !42
  %8 = tail call i32 @WebPMuxGetChunk(ptr noundef %7, ptr noundef %1, ptr noundef %2) #14
  br label %9

9:                                                ; preds = %3, %5
  %.0 = phi i32 [ %8, %5 ], [ -1, %3 ]
  ret i32 %.0
}